target datalayout = "e-m:e-p270:32:32-p271:32:32-p272:64:64-i64:64-i128:128-f80:128-n8:16:32:64-S128"
target triple = "x86_64-unknown-linux-gnu"

%"struct.node::AssertionInfo" = type { ptr, ptr, ptr }
%"class.node::StreamResource" = type { ptr, ptr, i64, i64 }
%"class.node::StreamListener" = type { ptr, ptr, ptr }

@_ZZN4node14StreamResource20RemoveStreamListenerEPNS_14StreamListenerEE4args = internal constant %"struct.node::AssertionInfo" { ptr @.str.51, ptr @.str.52, ptr @.str.53 }, align 8
@_ZZN4node14StreamResource20RemoveStreamListenerEPNS_14StreamListenerEE4args_0 = internal constant %"struct.node::AssertionInfo" { ptr @.str.54, ptr @.str.55, ptr @.str.53 }, align 8

; Function Attrs: mustprogress nounwind uwtable
define dso_local void @_ZN4node14StreamResource20RemoveStreamListenerEPNS_14StreamListenerE(ptr noundef nonnull align 8 dereferenceable(32) %this, ptr noundef %listener) #4 align 2 {
entry:
  %this.addr = alloca ptr, align 8
  %listener.addr = alloca ptr, align 8
  %previous = alloca ptr, align 8
  %current = alloca ptr, align 8
  store ptr %this, ptr %this.addr, align 8
  store ptr %listener, ptr %listener.addr, align 8
  %this1 = load ptr, ptr %this.addr, align 8
  br label %do.body

do.body:                                          ; preds = %entry
  %0 = load ptr, ptr %listener.addr, align 8
  %cmp = icmp ne ptr %0, null
  %lnot = xor i1 %cmp, true
  %lnot2 = xor i1 %lnot, true
  %lnot3 = xor i1 %lnot2, true
  br i1 %lnot3, label %if.then, label %if.end

if.then:                                          ; preds = %do.body
  br label %do.body4

do.body4:                                         ; preds = %if.then
  call void @_ZN4node6AssertERKNS_13AssertionInfoE(ptr noundef nonnull align 8 dereferenceable(24) @_ZZN4node14StreamResource20RemoveStreamListenerEPNS_14StreamListenerEE4args)
  call void @abort() #15
  unreachable

do.end:                                           ; No predecessors!
  br label %if.end

if.end:                                           ; preds = %do.end, %do.body
  br label %do.end5

do.end5:                                          ; preds = %if.end
  %listener_ = getelementptr inbounds %"class.node::StreamResource", ptr %this1, i32 0, i32 1
  %1 = load ptr, ptr %listener_, align 8
  store ptr %1, ptr %current, align 8
  store ptr null, ptr %previous, align 8
  br label %for.cond

for.cond:                                         ; preds = %for.inc, %do.end5
  br label %do.body6

do.body6:                                         ; preds = %for.cond
  %2 = load ptr, ptr %current, align 8
  %cmp7 = icmp ne ptr %2, null
  %lnot8 = xor i1 %cmp7, true
  %lnot9 = xor i1 %lnot8, true
  %lnot10 = xor i1 %lnot9, true
  br i1 %lnot10, label %if.then11, label %if.end14

if.then11:                                        ; preds = %do.body6
  br label %do.body12

do.body12:                                        ; preds = %if.then11
  call void @_ZN4node6AssertERKNS_13AssertionInfoE(ptr noundef nonnull align 8 dereferenceable(24) @_ZZN4node14StreamResource20RemoveStreamListenerEPNS_14StreamListenerEE4args_0)
  call void @abort() #15
  unreachable

do.end13:                                         ; No predecessors!
  br label %if.end14

if.end14:                                         ; preds = %do.end13, %do.body6
  br label %do.end15

do.end15:                                         ; preds = %if.end14
  %3 = load ptr, ptr %current, align 8
  %4 = load ptr, ptr %listener.addr, align 8
  %cmp16 = icmp eq ptr %3, %4
  br i1 %cmp16, label %if.then17, label %if.end24

if.then17:                                        ; preds = %do.end15
  %5 = load ptr, ptr %previous, align 8
  %cmp18 = icmp ne ptr %5, null
  br i1 %cmp18, label %if.then19, label %if.else

if.then19:                                        ; preds = %if.then17
  %6 = load ptr, ptr %current, align 8
  %previous_listener_ = getelementptr inbounds %"class.node::StreamListener", ptr %6, i32 0, i32 2
  %7 = load ptr, ptr %previous_listener_, align 8
  %8 = load ptr, ptr %previous, align 8
  %previous_listener_20 = getelementptr inbounds %"class.node::StreamListener", ptr %8, i32 0, i32 2
  store ptr %7, ptr %previous_listener_20, align 8
  br label %if.end23

if.else:                                          ; preds = %if.then17
  %9 = load ptr, ptr %listener.addr, align 8
  %previous_listener_21 = getelementptr inbounds %"class.node::StreamListener", ptr %9, i32 0, i32 2
  %10 = load ptr, ptr %previous_listener_21, align 8
  %listener_22 = getelementptr inbounds %"class.node::StreamResource", ptr %this1, i32 0, i32 1
  store ptr %10, ptr %listener_22, align 8
  br label %if.end23

if.end23:                                         ; preds = %if.else, %if.then19
  br label %for.end

if.end24:                                         ; preds = %do.end15
  br label %for.inc

for.inc:                                          ; preds = %if.end24
  %11 = load ptr, ptr %current, align 8
  store ptr %11, ptr %previous, align 8
  %12 = load ptr, ptr %current, align 8
  %previous_listener_25 = getelementptr inbounds %"class.node::StreamListener", ptr %12, i32 0, i32 2
  %13 = load ptr, ptr %previous_listener_25, align 8
  store ptr %13, ptr %current, align 8
  br label %for.cond, !llvm.loop !11

for.end:                                          ; preds = %if.end23
  %14 = load ptr, ptr %listener.addr, align 8
  %stream_ = getelementptr inbounds %"class.node::StreamListener", ptr %14, i32 0, i32 1
  store ptr null, ptr %stream_, align 8
  %15 = load ptr, ptr %listener.addr, align 8
  %previous_listener_26 = getelementptr inbounds %"class.node::StreamListener", ptr %15, i32 0, i32 2
  store ptr null, ptr %previous_listener_26, align 8
  ret void
}

; Function Attrs: mustprogress nounwind uwtable
define dso_local void @_ZN4node14StreamResourceD2Ev(ptr noundef nonnull align 8 dereferenceable(32) %this) unnamed_addr #4 align 2 {
entry:
  %this.addr = alloca ptr, align 8
  %listener = alloca ptr, align 8
  store ptr %this, ptr %this.addr, align 8
  %this1 = load ptr, ptr %this.addr, align 8
  store ptr getelementptr inbounds ({ [12 x ptr] }, ptr @_ZTVN4node14StreamResourceE, i32 0, i32 0, i32 2), ptr %this1, align 8
  br label %while.cond

while.cond:                                       ; preds = %if.end, %entry
  %listener_ = getelementptr inbounds %"class.node::StreamResource", ptr %this1, i32 0, i32 1
  %0 = load ptr, ptr %listener_, align 8
  %cmp = icmp ne ptr %0, null
  br i1 %cmp, label %while.body, label %while.end

while.body:                                       ; preds = %while.cond
  %listener_2 = getelementptr inbounds %"class.node::StreamResource", ptr %this1, i32 0, i32 1
  %1 = load ptr, ptr %listener_2, align 8
  store ptr %1, ptr %listener, align 8
  %2 = load ptr, ptr %listener, align 8
  %vtable = load ptr, ptr %2, align 8
  %vfn = getelementptr inbounds ptr, ptr %vtable, i64 7
  %3 = load ptr, ptr %vfn, align 8
  call void %3(ptr noundef nonnull align 8 dereferenceable(24) %2)
  %4 = load ptr, ptr %listener, align 8
  %listener_3 = getelementptr inbounds %"class.node::StreamResource", ptr %this1, i32 0, i32 1
  %5 = load ptr, ptr %listener_3, align 8
  %cmp4 = icmp eq ptr %4, %5
  br i1 %cmp4, label %if.then, label %if.end

if.then:                                          ; preds = %while.body
  %listener_5 = getelementptr inbounds %"class.node::StreamResource", ptr %this1, i32 0, i32 1
  %6 = load ptr, ptr %listener_5, align 8
  call void @_ZN4node14StreamResource20RemoveStreamListenerEPNS_14StreamListenerE(ptr noundef nonnull align 8 dereferenceable(32) %this1, ptr noundef %6)
  br label %if.end

if.end:                                           ; preds = %if.then, %while.body
  br label %while.cond, !llvm.loop !12

while.end:                                        ; preds = %while.cond
  ret void
}