; Function Attrs: mustprogress nounwind uwtable
define dso_local void @_ZN4node14StreamResourceD2Ev(ptr nocapture noundef nonnull align 8 dereferenceable(32) %this) unnamed_addr #3 align 2 {
entry:
  store ptr getelementptr inbounds ({ [12 x ptr] }, ptr @_ZTVN4node14StreamResourceE, i64 0, i32 0, i64 2), ptr %this, align 8
  %listener_ = getelementptr inbounds i8, ptr %this, i64 8
  %0 = load ptr, ptr %listener_, align 8
  %cmp.not5 = icmp eq ptr %0, null
  br i1 %cmp.not5, label %while.end, label %while.body

while.body:                                       ; preds = %entry, %if.end
  %1 = phi ptr [ %5, %if.end ], [ %0, %entry ]
  %vtable = load ptr, ptr %1, align 8
  %vfn = getelementptr inbounds i8, ptr %vtable, i64 56
  %2 = load ptr, ptr %vfn, align 8
  tail call void %2(ptr noundef nonnull align 8 dereferenceable(24) %1) #20
  %3 = load ptr, ptr %listener_, align 8
  %cmp4 = icmp eq ptr %1, %3
  br i1 %cmp4, label %if.then, label %if.end

if.then:                                          ; preds = %while.body
  %previous_listener_21.i = getelementptr inbounds i8, ptr %1, i64 16
  %4 = load ptr, ptr %previous_listener_21.i, align 8
  store ptr %4, ptr %listener_, align 8
  %stream_.i = getelementptr inbounds i8, ptr %1, i64 8
  tail call void @llvm.memset.p0.i64(ptr noundef nonnull align 8 dereferenceable(16) %stream_.i, i8 0, i64 16, i1 false)
  %.pre = load ptr, ptr %listener_, align 8
  br label %if.end

if.end:                                           ; preds = %if.then, %while.body
  %5 = phi ptr [ %.pre, %if.then ], [ %3, %while.body ]
  %cmp.not = icmp eq ptr %5, null
  br i1 %cmp.not, label %while.end, label %while.body, !llvm.loop !12

while.end:                                        ; preds = %if.end, %entry
  ret void
}